; Function Attrs: mustprogress uwtable
define hidden void @_ZNK7datalog15hashtable_table5beginEv(ptr noalias nocapture writeonly sret(%"class.datalog::table_base::iterator") align 8 %agg.result, ptr noundef nonnull align 8 dereferenceable(64) %this) unnamed_addr #3 align 2 personality ptr @__gxx_personality_v0 {
entry:
  %call = tail call noalias noundef ptr @_ZN6memory8allocateEm(i64 noundef 80)
  store ptr getelementptr inbounds ({ [8 x ptr] }, ptr @_ZTVN7datalog15hashtable_table17our_iterator_coreE, i64 0, i32 0, i64 2), ptr %call, align 8
  %m_parent.i = getelementptr inbounds i8, ptr %call, i64 16
  store ptr %this, ptr %m_parent.i, align 8
  %m_data.i = getelementptr inbounds i8, ptr %this, i64 40
  %0 = load ptr, ptr %m_data.i, align 8
  %m_capacity.i.i = getelementptr inbounds i8, ptr %this, i64 48
  %1 = load i32, ptr %m_capacity.i.i, align 8
  %idx.ext.i.i = zext i32 %1 to i64
  %add.ptr.i.i = getelementptr inbounds %class.default_hash_entry, ptr %0, i64 %idx.ext.i.i
  %cmp.not2.i.i.i.i = icmp eq i32 %1, 0
  br i1 %cmp.not2.i.i.i.i, label %_ZN7datalog10table_base11mk_iteratorEPNS0_13iterator_coreE.exit, label %land.rhs.i.i.i.i

land.rhs.i.i.i.i:                                 ; preds = %entry, %while.body.i.i.i.i
  %retval.sroa.0.0.i.i = phi ptr [ %incdec.ptr.i.i.i.i, %while.body.i.i.i.i ], [ %0, %entry ]
  %m_state.i.i.i.i.i = getelementptr inbounds i8, ptr %retval.sroa.0.0.i.i, i64 4
  %2 = load i32, ptr %m_state.i.i.i.i.i, align 4
  %cmp.i.i.i.i.i = icmp eq i32 %2, 2
  br i1 %cmp.i.i.i.i.i, label %_ZN7datalog10table_base11mk_iteratorEPNS0_13iterator_coreE.exit, label %while.body.i.i.i.i

while.body.i.i.i.i:                               ; preds = %land.rhs.i.i.i.i
  %incdec.ptr.i.i.i.i = getelementptr inbounds i8, ptr %retval.sroa.0.0.i.i, i64 16
  %cmp.not.i.i.i.i = icmp eq ptr %incdec.ptr.i.i.i.i, %add.ptr.i.i
  br i1 %cmp.not.i.i.i.i, label %_ZN7datalog10table_base11mk_iteratorEPNS0_13iterator_coreE.exit, label %land.rhs.i.i.i.i, !llvm.loop !4

_ZN7datalog10table_base11mk_iteratorEPNS0_13iterator_coreE.exit: ; preds = %land.rhs.i.i.i.i, %while.body.i.i.i.i, %entry
  %retval.sroa.0.1.i.sink.i = phi ptr [ %0, %entry ], [ %add.ptr.i.i, %while.body.i.i.i.i ], [ %retval.sroa.0.0.i.i, %land.rhs.i.i.i.i ]
  %m_ref_cnt.i.i = getelementptr inbounds i8, ptr %call, i64 8
  %m_inner.i = getelementptr inbounds i8, ptr %call, i64 24
  store ptr %retval.sroa.0.1.i.sink.i, ptr %m_inner.i, align 8
  %3 = getelementptr inbounds i8, ptr %call, i64 32
  store ptr %add.ptr.i.i, ptr %3, align 8
  %m_end.i = getelementptr inbounds i8, ptr %call, i64 40
  store ptr %add.ptr.i.i, ptr %m_end.i, align 8
  %4 = getelementptr inbounds i8, ptr %call, i64 48
  store ptr %add.ptr.i.i, ptr %4, align 8
  %m_row_obj.i = getelementptr inbounds i8, ptr %call, i64 56
  %m_parent_table.i.i.i = getelementptr inbounds i8, ptr %call, i64 64
  store ptr %this, ptr %m_parent_table.i.i.i, align 8
  store ptr getelementptr inbounds ({ [9 x ptr] }, ptr @_ZTVN7datalog15hashtable_table17our_iterator_core7our_rowE, i64 0, i32 0, i64 2), ptr %m_row_obj.i, align 8
  %m_parent2.i.i = getelementptr inbounds i8, ptr %call, i64 72
  store ptr %call, ptr %m_parent2.i.i, align 8
  tail call void @llvm.experimental.noalias.scope.decl(metadata !6)
  store ptr %call, ptr %agg.result, align 8, !alias.scope !6
  store i32 1, ptr %m_ref_cnt.i.i, align 8, !noalias !6
  ret void
}